; Function Attrs: alwaysinline norecurse nounwind uwtable
define internal void @_ZN5faiss9byte_randEPhml.omp_outlined(ptr noalias noundef readonly captures(none) %0, ptr noalias readnone captures(none) %1, ptr noundef nonnull readonly align 8 captures(none) dereferenceable(8) %2, ptr noundef nonnull readonly align 4 captures(none) dereferenceable(4) %3, ptr noundef nonnull readonly align 4 captures(none) dereferenceable(4) %4, ptr noundef nonnull readonly align 8 captures(none) dereferenceable(8) %5, ptr noundef nonnull readonly align 8 captures(none) dereferenceable(8) %6) #5 personality ptr @__gxx_personality_v0 {
  %8 = alloca i64, align 8
  %9 = alloca i64, align 8
  %10 = alloca i64, align 8
  %11 = alloca i32, align 4
  %12 = alloca %"struct.faiss::RandomGenerator", align 8
  %13 = load i64, ptr %2, align 8, !tbaa !4
  %.not = icmp eq i64 %13, 0
  br i1 %.not, label %110, label %14

14:                                               ; preds = %7
  %15 = add i64 %13, -1
  call void @llvm.lifetime.start.p0(i64 8, ptr nonnull %8) #6
  store i64 0, ptr %8, align 8, !tbaa !4
  call void @llvm.lifetime.start.p0(i64 8, ptr nonnull %9) #6
  store i64 %15, ptr %9, align 8, !tbaa !4
  call void @llvm.lifetime.start.p0(i64 8, ptr nonnull %10) #6
  store i64 1, ptr %10, align 8, !tbaa !4
  call void @llvm.lifetime.start.p0(i64 4, ptr nonnull %11) #6
  store i32 0, ptr %11, align 4, !tbaa !19
  %16 = load i32, ptr %0, align 4, !tbaa !19
  call void @__kmpc_for_static_init_8u(ptr nonnull @1, i32 %16, i32 34, ptr nonnull %11, ptr nonnull %8, ptr nonnull %9, ptr nonnull %10, i64 1, i64 1)
  %17 = load i64, ptr %9, align 8, !tbaa !4
  %18 = call i64 @llvm.umin.i64(i64 %17, i64 %15)
  store i64 %18, ptr %9, align 8, !tbaa !4
  %19 = load i64, ptr %8, align 8, !tbaa !4
  %.not29 = icmp ugt i64 %19, %18
  br i1 %.not29, label %._crit_edge28, label %.lr.ph27

.lr.ph27:                                         ; preds = %14
  %20 = getelementptr inbounds nuw i8, ptr %12, i64 4992
  %.phi.trans.insert.i.i = getelementptr inbounds nuw i8, ptr %12, i64 1816
  %21 = getelementptr inbounds nuw i8, ptr %12, i64 4984
  %22 = getelementptr inbounds nuw i8, ptr %12, i64 3168
  br label %23

23:                                               ; preds = %.lr.ph27, %._crit_edge
  %.02225 = phi i64 [ %19, %.lr.ph27 ], [ %35, %._crit_edge ]
  call void @llvm.lifetime.start.p0(i64 5000, ptr nonnull %12) #6
  %24 = load i32, ptr %3, align 4, !tbaa !19
  %25 = sext i32 %24 to i64
  %26 = load i32, ptr %4, align 4, !tbaa !19
  %27 = sext i32 %26 to i64
  %28 = mul nsw i64 %.02225, %27
  %29 = add nsw i64 %28, %25
  invoke void @_ZN5faiss15RandomGeneratorC1El(ptr noundef nonnull align 8 dereferenceable(5000) %12, i64 noundef %29)
          to label %30 unwind label %.loopexit.split-lp

30:                                               ; preds = %23
  %31 = load i64, ptr %5, align 8, !tbaa !4
  %32 = mul i64 %31, %.02225
  %33 = load i64, ptr %2, align 8, !tbaa !4
  %34 = udiv i64 %32, %33
  %35 = add nuw nsw i64 %.02225, 1
  %36 = mul i64 %31, %35
  %37 = udiv i64 %36, %33
  %38 = icmp ult i64 %34, %37
  br i1 %38, label %.lr.ph, label %._crit_edge

.lr.ph:                                           ; preds = %30, %91
  %.024 = phi i64 [ %105, %91 ], [ %34, %30 ]
  %39 = load i64, ptr %20, align 8, !tbaa !10
  %40 = icmp ugt i64 %39, 623
  br i1 %40, label %41, label %.noexc

41:                                               ; preds = %.lr.ph
  %.pre.i.i = load i64, ptr %12, align 8, !tbaa !4
  br label %42

42:                                               ; preds = %42, %41
  %43 = phi i64 [ %.pre.i.i, %41 ], [ %48, %42 ]
  %.021.i.i = phi i64 [ 0, %41 ], [ %46, %42 ]
  %44 = getelementptr inbounds nuw [624 x i64], ptr %12, i64 0, i64 %.021.i.i
  %45 = and i64 %43, -2147483648
  %46 = add nuw nsw i64 %.021.i.i, 1
  %47 = getelementptr inbounds nuw [624 x i64], ptr %12, i64 0, i64 %46
  %48 = load i64, ptr %47, align 8, !tbaa !4
  %49 = and i64 %48, 2147483646
  %50 = or disjoint i64 %49, %45
  %51 = add nuw nsw i64 %.021.i.i, 397
  %52 = getelementptr inbounds nuw [624 x i64], ptr %12, i64 0, i64 %51
  %53 = load i64, ptr %52, align 8, !tbaa !4
  %54 = lshr exact i64 %50, 1
  %55 = xor i64 %54, %53
  %56 = and i64 %48, 1
  %.not20.i.i = icmp eq i64 %56, 0
  %57 = select i1 %.not20.i.i, i64 0, i64 2567483615
  %58 = xor i64 %55, %57
  store i64 %58, ptr %44, align 8, !tbaa !4
  %exitcond.not.i.i = icmp eq i64 %46, 227
  br i1 %exitcond.not.i.i, label %.preheader.preheader.i.i, label %42, !llvm.loop !12

.preheader.preheader.i.i:                         ; preds = %42
  %.pre24.i.i = load i64, ptr %.phi.trans.insert.i.i, align 8, !tbaa !4
  br label %.preheader.i.i

.preheader.i.i:                                   ; preds = %.preheader.i.i, %.preheader.preheader.i.i
  %59 = phi i64 [ %64, %.preheader.i.i ], [ %.pre24.i.i, %.preheader.preheader.i.i ]
  %.01822.i.i = phi i64 [ %62, %.preheader.i.i ], [ 227, %.preheader.preheader.i.i ]
  %60 = getelementptr inbounds nuw [624 x i64], ptr %12, i64 0, i64 %.01822.i.i
  %61 = and i64 %59, -2147483648
  %62 = add nuw nsw i64 %.01822.i.i, 1
  %63 = getelementptr inbounds nuw [624 x i64], ptr %12, i64 0, i64 %62
  %64 = load i64, ptr %63, align 8, !tbaa !4
  %65 = and i64 %64, 2147483646
  %66 = or disjoint i64 %65, %61
  %67 = add nsw i64 %.01822.i.i, -227
  %68 = getelementptr inbounds nuw [624 x i64], ptr %12, i64 0, i64 %67
  %69 = load i64, ptr %68, align 8, !tbaa !4
  %70 = lshr exact i64 %66, 1
  %71 = xor i64 %70, %69
  %72 = and i64 %64, 1
  %.not19.i.i = icmp eq i64 %72, 0
  %73 = select i1 %.not19.i.i, i64 0, i64 2567483615
  %74 = xor i64 %71, %73
  store i64 %74, ptr %60, align 8, !tbaa !4
  %exitcond23.not.i.i = icmp eq i64 %62, 623
  br i1 %exitcond23.not.i.i, label %_ZNSt23mersenne_twister_engineImLm32ELm624ELm397ELm31ELm2567483615ELm11ELm4294967295ELm7ELm2636928640ELm15ELm4022730752ELm18ELm1812433253EE11_M_gen_randEv.exit.i, label %.preheader.i.i, !llvm.loop !13

_ZNSt23mersenne_twister_engineImLm32ELm624ELm397ELm31ELm2567483615ELm11ELm4294967295ELm7ELm2636928640ELm15ELm4022730752ELm18ELm1812433253EE11_M_gen_randEv.exit.i: ; preds = %.preheader.i.i
  %75 = load i64, ptr %21, align 8, !tbaa !4
  %76 = and i64 %75, -2147483648
  %77 = load i64, ptr %12, align 8, !tbaa !4
  %78 = and i64 %77, 2147483646
  %79 = or disjoint i64 %78, %76
  %80 = load i64, ptr %22, align 8, !tbaa !4
  %81 = lshr exact i64 %79, 1
  %82 = xor i64 %81, %80
  %83 = and i64 %77, 1
  %.not.i.i = icmp eq i64 %83, 0
  %84 = select i1 %.not.i.i, i64 0, i64 2567483615
  %85 = xor i64 %82, %84
  store i64 %85, ptr %21, align 8, !tbaa !4
  br label %.noexc

.noexc:                                           ; preds = %_ZNSt23mersenne_twister_engineImLm32ELm624ELm397ELm31ELm2567483615ELm11ELm4294967295ELm7ELm2636928640ELm15ELm4022730752ELm18ELm1812433253EE11_M_gen_randEv.exit.i, %.lr.ph
  %86 = phi i64 [ 0, %_ZNSt23mersenne_twister_engineImLm32ELm624ELm397ELm31ELm2567483615ELm11ELm4294967295ELm7ELm2636928640ELm15ELm4022730752ELm18ELm1812433253EE11_M_gen_randEv.exit.i ], [ %39, %.lr.ph ]
  %87 = add nuw nsw i64 %86, 1
  store i64 %87, ptr %20, align 8, !tbaa !10
  %88 = getelementptr inbounds nuw [624 x i64], ptr %12, i64 0, i64 %86
  %89 = load i64, ptr %88, align 8, !tbaa !4
  %90 = invoke noundef i64 @_ZNSt23mersenne_twister_engineImLm32ELm624ELm397ELm31ELm2567483615ELm11ELm4294967295ELm7ELm2636928640ELm15ELm4022730752ELm18ELm1812433253EEclEv(ptr noundef nonnull align 8 dereferenceable(5000) %12)
          to label %91 unwind label %.loopexit

91:                                               ; preds = %.noexc
  %92 = lshr i64 %89, 11
  %93 = xor i64 %92, %89
  %94 = shl i64 %93, 7
  %95 = and i64 %94, 2636928640
  %96 = xor i64 %95, %93
  %97 = shl i64 %96, 15
  %98 = and i64 %97, 63176704
  %99 = xor i64 %98, %96
  %100 = lshr i64 %99, 18
  %101 = xor i64 %100, %96
  %102 = trunc i64 %101 to i8
  %103 = load ptr, ptr %6, align 8, !tbaa !36
  %104 = getelementptr inbounds nuw i8, ptr %103, i64 %.024
  store i8 %102, ptr %104, align 1, !tbaa !38
  %105 = add nuw i64 %.024, 1
  %106 = icmp ult i64 %105, %37
  br i1 %106, label %.lr.ph, label %._crit_edge, !llvm.loop !39

._crit_edge:                                      ; preds = %91, %30
  call void @llvm.lifetime.end.p0(i64 5000, ptr nonnull %12) #6
  %107 = load i64, ptr %9, align 8, !tbaa !4
  %108 = add i64 %107, 1
  %109 = icmp ult i64 %35, %108
  br i1 %109, label %23, label %._crit_edge28

._crit_edge28:                                    ; preds = %._crit_edge, %14
  call void @__kmpc_for_static_fini(ptr nonnull @1, i32 %16)
  call void @llvm.lifetime.end.p0(i64 4, ptr nonnull %11) #6
  call void @llvm.lifetime.end.p0(i64 8, ptr nonnull %10) #6
  call void @llvm.lifetime.end.p0(i64 8, ptr nonnull %9) #6
  call void @llvm.lifetime.end.p0(i64 8, ptr nonnull %8) #6
  br label %110

110:                                              ; preds = %._crit_edge28, %7
  ret void

.loopexit:                                        ; preds = %.noexc
  %lpad.loopexit = landingpad { ptr, i32 }
          catch ptr null
  br label %111

.loopexit.split-lp:                               ; preds = %23
  %lpad.loopexit.split-lp = landingpad { ptr, i32 }
          catch ptr null
  br label %111

111:                                              ; preds = %.loopexit.split-lp, %.loopexit
  %lpad.phi = phi { ptr, i32 } [ %lpad.loopexit, %.loopexit ], [ %lpad.loopexit.split-lp, %.loopexit.split-lp ]
  %112 = extractvalue { ptr, i32 } %lpad.phi, 0
  call void @__clang_call_terminate(ptr %112) #18
  unreachable
}